target datalayout = "e-m:e-p270:32:32-p271:32:32-p272:64:64-i64:64-i128:128-f80:128-n8:16:32:64-S128"
target triple = "x86_64-pc-linux-gnu"

%"struct.Luau::Location" = type { %"struct.Luau::Position", %"struct.Luau::Position" }
%"struct.Luau::Position" = type { i32, i32 }
%"class.Luau::AstNode.base" = type <{ ptr, i32, %"struct.Luau::Location" }>
%"class.std::optional.479" = type { %"struct.std::_Optional_base.480" }
%"struct.std::_Optional_base.480" = type { %"struct.std::_Optional_payload.482" }
%"struct.std::_Optional_payload.482" = type { %"struct.std::_Optional_payload_base.base.484", [7 x i8] }
%"struct.std::_Optional_payload_base.base.484" = type <{ %"union.std::_Optional_payload_base<const Luau::Type *>::_Storage", i8 }>
%"union.std::_Optional_payload_base<const Luau::Type *>::_Storage" = type { ptr }
%"class.Luau::AstExpr.base" = type { %"class.Luau::AstNode.base" }
%"struct.Luau::Inference" = type { ptr, ptr }
%"class.Luau::AstExprTypeAssertion" = type { %"class.Luau::AstExpr.base", ptr, ptr }
%"struct.std::_Optional_payload_base.483" = type <{ %"union.std::_Optional_payload_base<const Luau::Type *>::_Storage", i8, [7 x i8] }>

; Function Attrs: mustprogress nounwind uwtable
define linkonce_odr dso_local void @_ZNSt22_Optional_payload_baseIPKN4Luau4TypeEE8_StorageIS3_Lb1EEC2Ev(ptr noundef nonnull align 8 dereferenceable(8) %0) unnamed_addr #2 comdat align 2 {
  %2 = alloca ptr, align 8
  store ptr %0, ptr %2, align 8, !tbaa !1705
  ret void
}

; Function Attrs: mustprogress nounwind uwtable
define linkonce_odr dso_local void @_ZNSt22_Optional_payload_baseIPKN4Luau4TypeEEC2Ev(ptr noundef nonnull align 8 dereferenceable(9) %0) unnamed_addr #2 comdat align 2 {
  %2 = alloca ptr, align 8
  store ptr %0, ptr %2, align 8, !tbaa !1699
  %3 = load ptr, ptr %2, align 8
  %4 = getelementptr inbounds nuw %"struct.std::_Optional_payload_base.483", ptr %3, i32 0, i32 0
  call void @_ZNSt22_Optional_payload_baseIPKN4Luau4TypeEE8_StorageIS3_Lb1EEC2Ev(ptr noundef nonnull align 8 dereferenceable(8) %4) #22
  %5 = getelementptr inbounds nuw %"struct.std::_Optional_payload_base.483", ptr %3, i32 0, i32 1
  store i8 0, ptr %5, align 8, !tbaa !1698
  ret void
}

; Function Attrs: mustprogress nounwind uwtable
define linkonce_odr dso_local void @_ZNSt17_Optional_payloadIPKN4Luau4TypeELb1ELb1ELb1EEC2Ev(ptr noundef nonnull align 8 dereferenceable(9) %0) unnamed_addr #2 comdat align 2 {
  %2 = alloca ptr, align 8
  store ptr %0, ptr %2, align 8, !tbaa !1703
  %3 = load ptr, ptr %2, align 8
  call void @_ZNSt22_Optional_payload_baseIPKN4Luau4TypeEEC2Ev(ptr noundef nonnull align 8 dereferenceable(9) %3) #22
  ret void
}

; Function Attrs: mustprogress nounwind uwtable
define linkonce_odr dso_local void @_ZNSt14_Optional_baseIPKN4Luau4TypeELb1ELb1EEC2Ev(ptr noundef nonnull align 8 dereferenceable(16) %0) unnamed_addr #2 comdat align 2 {
  %2 = alloca ptr, align 8
  store ptr %0, ptr %2, align 8, !tbaa !1701
  %3 = load ptr, ptr %2, align 8
  %4 = getelementptr inbounds nuw %"struct.std::_Optional_base.480", ptr %3, i32 0, i32 0
  call void @_ZNSt17_Optional_payloadIPKN4Luau4TypeELb1ELb1ELb1EEC2Ev(ptr noundef nonnull align 8 dereferenceable(9) %4) #22
  ret void
}

; Function Attrs: mustprogress nounwind uwtable
define linkonce_odr dso_local void @_ZN4Luau9InferenceC2EPKNS_4TypeEPNS_7VariantIJNS_8VariadicENS_8NegationENS_11ConjunctionENS_11DisjunctionENS_11EquivalenceENS_11PropositionEEEE(ptr noundef nonnull align 8 dereferenceable(16) %0, ptr noundef %1, ptr noundef %2) unnamed_addr #2 comdat align 2 {
  %4 = alloca ptr, align 8
  %5 = alloca ptr, align 8
  %6 = alloca ptr, align 8
  store ptr %0, ptr %4, align 8, !tbaa !1315
  store ptr %1, ptr %5, align 8, !tbaa !157
  store ptr %2, ptr %6, align 8, !tbaa !470
  %7 = load ptr, ptr %4, align 8
  %8 = getelementptr inbounds nuw %"struct.Luau::Inference", ptr %7, i32 0, i32 0
  %9 = load ptr, ptr %5, align 8, !tbaa !157
  store ptr %9, ptr %8, align 8, !tbaa !891
  %10 = getelementptr inbounds nuw %"struct.Luau::Inference", ptr %7, i32 0, i32 1
  %11 = load ptr, ptr %6, align 8, !tbaa !470
  store ptr %11, ptr %10, align 8, !tbaa !874
  ret void
}

; Function Attrs: mustprogress nounwind uwtable
define linkonce_odr dso_local void @_ZNSt8optionalIPKN4Luau4TypeEEC2ESt9nullopt_t(ptr noundef nonnull align 8 dereferenceable(16) %0) unnamed_addr #2 comdat align 2 {
  %2 = alloca ptr, align 8
  store ptr %0, ptr %2, align 8, !tbaa !413
  %3 = load ptr, ptr %2, align 8
  call void @_ZNSt14_Optional_baseIPKN4Luau4TypeELb1ELb1EEC2Ev(ptr noundef nonnull align 8 dereferenceable(16) %3) #22
  ret void
}

; Function Attrs: mustprogress uwtable
define dso_local { ptr, ptr } @_ZN4Luau19ConstraintGenerator5checkERKSt10shared_ptrINS_5ScopeEEPNS_20AstExprTypeAssertionE(ptr noundef nonnull align 8 dereferenceable(472) %0, ptr noundef nonnull align 8 dereferenceable(16) %1, ptr noundef %2) #3 align 2 {
  %4 = alloca %"struct.Luau::Inference", align 8
  %5 = alloca ptr, align 8
  %6 = alloca ptr, align 8
  %7 = alloca ptr, align 8
  %8 = alloca %"class.std::optional.479", align 8
  %9 = alloca %"struct.Luau::Inference", align 8
  store ptr %0, ptr %5, align 8, !tbaa !22
  store ptr %1, ptr %6, align 8, !tbaa !26
  store ptr %2, ptr %7, align 8, !tbaa !1144
  %10 = load ptr, ptr %5, align 8
  %11 = load ptr, ptr %6, align 8, !tbaa !26
  %12 = load ptr, ptr %7, align 8, !tbaa !1144
  %13 = getelementptr inbounds nuw %"class.Luau::AstExprTypeAssertion", ptr %12, i32 0, i32 1
  %14 = load ptr, ptr %13, align 8, !tbaa !1367
  call void @_ZNSt8optionalIPKN4Luau4TypeEEC2ESt9nullopt_t(ptr noundef nonnull align 8 dereferenceable(16) %8) #22
  %15 = getelementptr inbounds nuw { ptr, i8 }, ptr %8, i32 0, i32 0
  %16 = load ptr, ptr %15, align 8
  %17 = getelementptr inbounds nuw { ptr, i8 }, ptr %8, i32 0, i32 1
  %18 = load i8, ptr %17, align 8
  %19 = call { ptr, ptr } @_ZN4Luau19ConstraintGenerator5checkERKSt10shared_ptrINS_5ScopeEEPNS_7AstExprESt8optionalIPKNS_4TypeEEbb(ptr noundef nonnull align 8 dereferenceable(472) %10, ptr noundef nonnull align 8 dereferenceable(16) %11, ptr noundef %14, ptr %16, i8 %18, i1 noundef zeroext false, i1 noundef zeroext true)
  %20 = getelementptr inbounds nuw { ptr, ptr }, ptr %9, i32 0, i32 0
  %21 = extractvalue { ptr, ptr } %19, 0
  store ptr %21, ptr %20, align 8
  %22 = getelementptr inbounds nuw { ptr, ptr }, ptr %9, i32 0, i32 1
  %23 = extractvalue { ptr, ptr } %19, 1
  store ptr %23, ptr %22, align 8
  %24 = load ptr, ptr %6, align 8, !tbaa !26
  %25 = load ptr, ptr %7, align 8, !tbaa !1144
  %26 = getelementptr inbounds nuw %"class.Luau::AstExprTypeAssertion", ptr %25, i32 0, i32 2
  %27 = load ptr, ptr %26, align 8, !tbaa !1369
  %28 = call noundef ptr @_ZN4Luau19ConstraintGenerator11resolveTypeERKSt10shared_ptrINS_5ScopeEEPNS_7AstTypeEbb(ptr noundef nonnull align 8 dereferenceable(472) %10, ptr noundef nonnull align 8 dereferenceable(16) %24, ptr noundef %27, i1 noundef zeroext false, i1 noundef zeroext false)
  call void @_ZN4Luau9InferenceC2EPKNS_4TypeEPNS_7VariantIJNS_8VariadicENS_8NegationENS_11ConjunctionENS_11DisjunctionENS_11EquivalenceENS_11PropositionEEEE(ptr noundef nonnull align 8 dereferenceable(16) %4, ptr noundef %28, ptr noundef null)
  %29 = load { ptr, ptr }, ptr %4, align 8
  ret { ptr, ptr } %29
}