; Function Attrs: mustprogress uwtable
define dso_local { ptr, ptr } @_ZN4Luau19ConstraintGenerator5checkERKSt10shared_ptrINS_5ScopeEEPNS_20AstExprTypeAssertionE(ptr noundef nonnull align 8 dereferenceable(472) %0, ptr noundef nonnull align 8 dereferenceable(16) %1, ptr noundef readonly captures(none) %2) local_unnamed_addr #5 align 2 {
  %4 = getelementptr inbounds nuw i8, ptr %2, i64 32
  %5 = load ptr, ptr %4, align 8, !tbaa !1115
  %6 = tail call { ptr, ptr } @_ZN4Luau19ConstraintGenerator5checkERKSt10shared_ptrINS_5ScopeEEPNS_7AstExprESt8optionalIPKNS_4TypeEEbb(ptr noundef nonnull align 8 dereferenceable(472) %0, ptr noundef nonnull align 8 dereferenceable(16) %1, ptr noundef %5, ptr undef, i8 0, i1 noundef zeroext false, i1 noundef zeroext true)
  %7 = getelementptr inbounds nuw i8, ptr %2, i64 40
  %8 = load ptr, ptr %7, align 8, !tbaa !1117
  %9 = tail call noundef ptr @_ZN4Luau19ConstraintGenerator11resolveTypeERKSt10shared_ptrINS_5ScopeEEPNS_7AstTypeEbb(ptr noundef nonnull align 8 dereferenceable(472) %0, ptr noundef nonnull align 8 dereferenceable(16) %1, ptr noundef %8, i1 noundef zeroext false, i1 noundef zeroext false)
  %.fca.0.insert = insertvalue { ptr, ptr } poison, ptr %9, 0
  %.fca.1.insert = insertvalue { ptr, ptr } %.fca.0.insert, ptr null, 1
  ret { ptr, ptr } %.fca.1.insert
}